; Function Attrs: nounwind uwtable
define ptr @l_Lake_instToLeanArrayMkStr1___rarg(ptr noundef %0, ptr noundef %1) #0 {
  %3 = getelementptr i8, ptr %1, i64 8
  %.val = load i64, ptr %3, align 8, !tbaa !4
  %4 = tail call ptr @l_Array_mapMUnsafe_map___at_Lake_instToLeanArrayMkStr1___spec__1___rarg(ptr noundef %0, i64 noundef %.val, i64 noundef 0, ptr noundef %1)
  %5 = load ptr, ptr @l_Lake_instToLeanArrayMkStr1___rarg___closed__9, align 8, !tbaa !12
  %6 = tail call ptr @l_Lean_Syntax_SepArray_ofElems(ptr noundef %5, ptr noundef %4) #6
  %7 = ptrtoint ptr %4 to i64
  %8 = and i64 %7, 1
  %.not = icmp eq i64 %8, 0
  br i1 %.not, label %9, label %lean_dec.exit22

9:                                                ; preds = %2
  %10 = load i32, ptr %4, align 4, !tbaa !8
  %11 = icmp sgt i32 %10, 1
  br i1 %11, label %12, label %14, !prof !11

12:                                               ; preds = %9
  %13 = add nsw i32 %10, -1
  store i32 %13, ptr %4, align 4, !tbaa !8
  br label %lean_dec.exit22

14:                                               ; preds = %9
  %.not.i = icmp eq i32 %10, 0
  br i1 %.not.i, label %lean_dec.exit22, label %15

15:                                               ; preds = %14
  tail call void @lean_dec_ref_cold(ptr noundef nonnull %4) #6
  br label %lean_dec.exit22

lean_dec.exit22:                                  ; preds = %15, %14, %12, %2
  %16 = load ptr, ptr @l_Lake_instToLeanArrayMkStr1___rarg___closed__8, align 8, !tbaa !12
  %17 = tail call ptr @l_Array_append___rarg(ptr noundef %16, ptr noundef %6) #6
  %18 = ptrtoint ptr %6 to i64
  %19 = and i64 %18, 1
  %.not25 = icmp eq i64 %19, 0
  br i1 %.not25, label %20, label %lean_dec.exit

20:                                               ; preds = %lean_dec.exit22
  %21 = load i32, ptr %6, align 4, !tbaa !8
  %22 = icmp sgt i32 %21, 1
  br i1 %22, label %23, label %25, !prof !11

23:                                               ; preds = %20
  %24 = add nsw i32 %21, -1
  store i32 %24, ptr %6, align 4, !tbaa !8
  br label %lean_dec.exit

25:                                               ; preds = %20
  %.not.i23 = icmp eq i32 %21, 0
  br i1 %.not.i23, label %lean_dec.exit, label %26

26:                                               ; preds = %25
  tail call void @lean_dec_ref_cold(ptr noundef nonnull %6) #6
  br label %lean_dec.exit

lean_dec.exit:                                    ; preds = %26, %25, %23, %lean_dec.exit22
  %27 = load ptr, ptr @l_Lake_instToLeanArrayMkStr1___rarg___closed__1, align 8, !tbaa !12
  %28 = load ptr, ptr @l_Lake_instToLeanArrayMkStr1___rarg___closed__7, align 8, !tbaa !12
  tail call void @lean_inc_heartbeat() #6
  %29 = tail call noalias ptr @mi_malloc_small(i64 noundef 32) #6
  %30 = icmp eq ptr %29, null
  br i1 %30, label %31, label %lean_alloc_ctor.exit

31:                                               ; preds = %lean_dec.exit
  tail call void @lean_internal_panic_out_of_memory() #7
  unreachable

lean_alloc_ctor.exit:                             ; preds = %lean_dec.exit
  %32 = getelementptr inbounds nuw i8, ptr %29, i64 4
  store i32 1, ptr %29, align 4, !tbaa !8
  store i32 16973856, ptr %32, align 4
  %33 = getelementptr inbounds nuw i8, ptr %29, i64 8
  store ptr %27, ptr %33, align 8, !tbaa !12
  %34 = getelementptr inbounds nuw i8, ptr %29, i64 16
  store ptr %28, ptr %34, align 8, !tbaa !12
  %35 = getelementptr inbounds nuw i8, ptr %29, i64 24
  store ptr %17, ptr %35, align 8, !tbaa !12
  %36 = load ptr, ptr @l_Lake_instToLeanArrayMkStr1___rarg___closed__3, align 8, !tbaa !12
  %37 = load ptr, ptr @l_Lake_instToLeanArrayMkStr1___rarg___closed__5, align 8, !tbaa !12
  %38 = load ptr, ptr @l_Lake_instToLeanArrayMkStr1___rarg___closed__11, align 8, !tbaa !12
  %39 = tail call ptr @l_Lean_Syntax_node3(ptr noundef %27, ptr noundef %36, ptr noundef %37, ptr noundef nonnull %29, ptr noundef %38) #6
  ret ptr %39
}